; Function Attrs: mustprogress uwtable
define noundef nonnull align 8 dereferenceable(473) ptr @_ZN6icu_756number26UnlocalizedNumberFormatteraSERKS1_(ptr noundef nonnull returned align 8 dereferenceable(473) %this, ptr noundef nonnull align 8 dereferenceable(473) %other) local_unnamed_addr #1 align 2 {
entry:
  %notation.i.i = getelementptr inbounds i8, ptr %this, i64 4
  %notation2.i.i = getelementptr inbounds i8, ptr %other, i64 4
  tail call void @llvm.memcpy.p0.p0.i64(ptr noundef nonnull align 4 dereferenceable(12) %notation.i.i, ptr noundef nonnull align 4 dereferenceable(12) %notation2.i.i, i64 12, i1 false)
  %unit.i.i = getelementptr inbounds i8, ptr %this, i64 16
  %unit3.i.i = getelementptr inbounds i8, ptr %other, i64 16
  %call.i.i = tail call noundef nonnull align 8 dereferenceable(19) ptr @_ZN6icu_7511MeasureUnitaSERKS0_(ptr noundef nonnull align 8 dereferenceable(19) %unit.i.i, ptr noundef nonnull align 8 dereferenceable(19) %unit3.i.i)
  %perUnit.i.i = getelementptr inbounds i8, ptr %this, i64 40
  %perUnit4.i.i = getelementptr inbounds i8, ptr %other, i64 40
  %call5.i.i = tail call noundef nonnull align 8 dereferenceable(19) ptr @_ZN6icu_7511MeasureUnitaSERKS0_(ptr noundef nonnull align 8 dereferenceable(19) %perUnit.i.i, ptr noundef nonnull align 8 dereferenceable(19) %perUnit4.i.i)
  %precision.i.i = getelementptr inbounds i8, ptr %this, i64 64
  %precision6.i.i = getelementptr inbounds i8, ptr %other, i64 64
  tail call void @llvm.memcpy.p0.p0.i64(ptr noundef nonnull align 8 dereferenceable(69) %precision.i.i, ptr noundef nonnull align 8 dereferenceable(69) %precision6.i.i, i64 69, i1 false)
  %symbols.i.i = getelementptr inbounds i8, ptr %this, i64 136
  %symbols7.i.i = getelementptr inbounds i8, ptr %other, i64 136
  %call8.i.i = tail call noundef nonnull align 8 dereferenceable(16) ptr @_ZN6icu_756number4impl14SymbolsWrapperaSERKS2_(ptr noundef nonnull align 8 dereferenceable(16) %symbols.i.i, ptr noundef nonnull align 8 dereferenceable(16) %symbols7.i.i)
  %unitWidth.i.i = getelementptr inbounds i8, ptr %this, i64 152
  %unitWidth9.i.i = getelementptr inbounds i8, ptr %other, i64 152
  tail call void @llvm.memcpy.p0.p0.i64(ptr noundef nonnull align 8 dereferenceable(16) %unitWidth.i.i, ptr noundef nonnull align 8 dereferenceable(16) %unitWidth9.i.i, i64 16, i1 false)
  %scale.i.i = getelementptr inbounds i8, ptr %this, i64 168
  %scale10.i.i = getelementptr inbounds i8, ptr %other, i64 168
  %call11.i.i = tail call noundef nonnull align 8 dereferenceable(20) ptr @_ZN6icu_756number5ScaleaSERKS1_(ptr noundef nonnull align 8 dereferenceable(20) %scale.i.i, ptr noundef nonnull align 8 dereferenceable(20) %scale10.i.i)
  %usage.i.i = getelementptr inbounds i8, ptr %this, i64 192
  %usage12.i.i = getelementptr inbounds i8, ptr %other, i64 192
  %call13.i.i = tail call noundef nonnull align 8 dereferenceable(16) ptr @_ZN6icu_756number4impl10StringPropaSERKS2_(ptr noundef nonnull align 8 dereferenceable(16) %usage.i.i, ptr noundef nonnull align 8 dereferenceable(16) %usage12.i.i)
  %unitDisplayCase.i.i = getelementptr inbounds i8, ptr %this, i64 208
  %unitDisplayCase14.i.i = getelementptr inbounds i8, ptr %other, i64 208
  %call15.i.i = tail call noundef nonnull align 8 dereferenceable(16) ptr @_ZN6icu_756number4impl10StringPropaSERKS2_(ptr noundef nonnull align 8 dereferenceable(16) %unitDisplayCase.i.i, ptr noundef nonnull align 8 dereferenceable(16) %unitDisplayCase14.i.i)
  %affixProvider.i.i = getelementptr inbounds i8, ptr %this, i64 224
  %affixProvider16.i.i = getelementptr inbounds i8, ptr %other, i64 224
  tail call void @llvm.memcpy.p0.p0.i64(ptr noundef nonnull align 8 dereferenceable(20) %affixProvider.i.i, ptr noundef nonnull align 8 dereferenceable(20) %affixProvider16.i.i, i64 20, i1 false)
  %locale.i.i = getelementptr inbounds i8, ptr %this, i64 248
  %locale17.i.i = getelementptr inbounds i8, ptr %other, i64 248
  %call18.i.i = tail call noundef nonnull align 8 dereferenceable(217) ptr @_ZN6icu_756LocaleaSERKS0_(ptr noundef nonnull align 8 dereferenceable(217) %locale.i.i, ptr noundef nonnull align 8 dereferenceable(217) %locale17.i.i)
  ret ptr %this
}